; Function Attrs: mustprogress nofree norecurse nosync nounwind willreturn memory(argmem: readwrite) uwtable
define dso_local void @_ZN5ImGui14TabBarCloseTabEP11ImGuiTabBarP12ImGuiTabItem(ptr noundef captures(none) %0, ptr noundef captures(none) %1) local_unnamed_addr #15 {
  %3 = getelementptr inbounds nuw i8, ptr %1, i64 4
  %4 = load i32, ptr %3, align 4, !tbaa !759
  %5 = and i32 %4, 2097152
  %.not = icmp eq i32 %5, 0
  br i1 %.not, label %6, label %25

6:                                                ; preds = %2
  %7 = and i32 %4, 257
  %8 = icmp eq i32 %7, 0
  br i1 %8, label %9, label %19

9:                                                ; preds = %6
  %10 = getelementptr inbounds nuw i8, ptr %1, i64 40
  store i8 1, ptr %10, align 4, !tbaa !753
  %11 = getelementptr inbounds nuw i8, ptr %0, i64 40
  %12 = load i32, ptr %11, align 8, !tbaa !748
  %13 = load i32, ptr %1, align 4, !tbaa !754
  %14 = icmp eq i32 %12, %13
  br i1 %14, label %15, label %25

15:                                               ; preds = %9
  %16 = getelementptr inbounds nuw i8, ptr %1, i64 8
  store i32 -1, ptr %16, align 4, !tbaa !752
  %17 = getelementptr inbounds nuw i8, ptr %0, i64 36
  store i32 0, ptr %17, align 4, !tbaa !756
  %18 = getelementptr inbounds nuw i8, ptr %0, i64 32
  store i32 0, ptr %18, align 8, !tbaa !755
  br label %25

19:                                               ; preds = %6
  %20 = getelementptr inbounds nuw i8, ptr %0, i64 40
  %21 = load i32, ptr %20, align 8, !tbaa !748
  %22 = load i32, ptr %1, align 4, !tbaa !754
  %.not12 = icmp eq i32 %21, %22
  br i1 %.not12, label %25, label %23

23:                                               ; preds = %19
  %24 = getelementptr inbounds nuw i8, ptr %0, i64 36
  store i32 %22, ptr %24, align 4, !tbaa !756
  br label %25

25:                                               ; preds = %19, %23, %9, %15, %2
  ret void
}